; Function Attrs: mustprogress nounwind willreturn uwtable
define internal fastcc ptr @Mig_ManAppendObj(ptr noundef %0) unnamed_addr #6 {
  %2 = getelementptr inbounds nuw i8, ptr %0, i64 8
  %3 = load i32, ptr %2, align 8
  %4 = getelementptr inbounds nuw i8, ptr %0, i64 24
  %5 = getelementptr i8, ptr %0, i64 28
  %.val11 = load i32, ptr %5, align 4
  %6 = shl i32 %.val11, 12
  %.not = icmp slt i32 %3, %6
  br i1 %.not, label %40, label %7

7:                                                ; preds = %1
  %8 = tail call noalias dereferenceable_or_null(65568) ptr @malloc(i64 noundef 65568) #15
  %9 = getelementptr inbounds nuw i8, ptr %8, i64 8
  tail call void @llvm.memset.p0.i64(ptr noundef nonnull align 1 dereferenceable(65568) %9, i8 -1, i64 65560, i1 false)
  store ptr %0, ptr %8, align 8
  %10 = getelementptr inbounds nuw i8, ptr %8, i64 16
  %11 = load i32, ptr %4, align 8
  %12 = icmp eq i32 %.val11, %11
  br i1 %12, label %13, label %.Vec_PtrGrow.exit11_crit_edge.i

.Vec_PtrGrow.exit11_crit_edge.i:                  ; preds = %7
  %.phi.trans.insert.i = getelementptr inbounds nuw i8, ptr %0, i64 32
  %.pre.i = load ptr, ptr %.phi.trans.insert.i, align 8
  br label %Vec_PtrPush.exit

13:                                               ; preds = %7
  %14 = icmp slt i32 %.val11, 16
  br i1 %14, label %15, label %23

15:                                               ; preds = %13
  %16 = getelementptr inbounds nuw i8, ptr %0, i64 32
  %17 = load ptr, ptr %16, align 8
  %.not9.i.i = icmp eq ptr %17, null
  br i1 %.not9.i.i, label %20, label %18

18:                                               ; preds = %15
  %19 = tail call dereferenceable_or_null(128) ptr @realloc(ptr noundef nonnull %17, i64 noundef 128) #14
  br label %Vec_PtrGrow.exit.i

20:                                               ; preds = %15
  %21 = tail call noalias dereferenceable_or_null(128) ptr @malloc(i64 noundef 128) #15
  br label %Vec_PtrGrow.exit.i

Vec_PtrGrow.exit.i:                               ; preds = %20, %18
  %22 = phi ptr [ %19, %18 ], [ %21, %20 ]
  store ptr %22, ptr %16, align 8
  store i32 16, ptr %4, align 8
  br label %Vec_PtrPush.exit

23:                                               ; preds = %13
  %24 = shl nuw nsw i32 %.val11, 1
  %25 = getelementptr inbounds nuw i8, ptr %0, i64 32
  %26 = load ptr, ptr %25, align 8
  %.not9.i10.i = icmp eq ptr %26, null
  %27 = zext nneg i32 %24 to i64
  %28 = shl nuw nsw i64 %27, 3
  br i1 %.not9.i10.i, label %31, label %29

29:                                               ; preds = %23
  %30 = tail call ptr @realloc(ptr noundef nonnull %26, i64 noundef %28) #14
  br label %33

31:                                               ; preds = %23
  %32 = tail call noalias ptr @malloc(i64 noundef %28) #15
  br label %33

33:                                               ; preds = %31, %29
  %34 = phi ptr [ %30, %29 ], [ %32, %31 ]
  store ptr %34, ptr %25, align 8
  store i32 %24, ptr %4, align 8
  br label %Vec_PtrPush.exit

Vec_PtrPush.exit:                                 ; preds = %.Vec_PtrGrow.exit11_crit_edge.i, %Vec_PtrGrow.exit.i, %33
  %35 = phi ptr [ %.pre.i, %.Vec_PtrGrow.exit11_crit_edge.i ], [ %34, %33 ], [ %22, %Vec_PtrGrow.exit.i ]
  %36 = load i32, ptr %5, align 4
  %37 = add nsw i32 %36, 1
  store i32 %37, ptr %5, align 4
  %38 = sext i32 %36 to i64
  %39 = getelementptr inbounds ptr, ptr %35, i64 %38
  store ptr %10, ptr %39, align 8
  %.pre = load i32, ptr %2, align 8
  br label %40

40:                                               ; preds = %Vec_PtrPush.exit, %1
  %41 = phi i32 [ %.pre, %Vec_PtrPush.exit ], [ %3, %1 ]
  %42 = add nsw i32 %41, 1
  store i32 %42, ptr %2, align 8
  %43 = getelementptr i8, ptr %0, i64 32
  %.val = load ptr, ptr %43, align 8
  %44 = ashr i32 %41, 12
  %45 = sext i32 %44 to i64
  %46 = getelementptr inbounds ptr, ptr %.val, i64 %45
  %47 = load ptr, ptr %46, align 8
  %48 = and i32 %41, 4095
  %49 = zext nneg i32 %48 to i64
  %50 = getelementptr inbounds nuw %struct.Mig_Obj_t_, ptr %47, i64 %49
  %51 = getelementptr inbounds nuw i8, ptr %50, i64 12
  %52 = load i32, ptr %51, align 4
  %53 = shl i32 %41, 1
  %54 = and i32 %52, 1
  %55 = or disjoint i32 %54, %53
  store i32 %55, ptr %51, align 4
  ret ptr %50
}